(dp0
S'cookies'
p1
(dp2
S'wxloadtime'
p3
S'1534301905'
p4
sS'webwx_data_ticket'
p5
S'gSeDqPFJfoZ6+l7Ny6Sdzn3p'
p6
sS'wxuin'
p7
S'917385573'
p8
sS'login_frequency'
p9
S'2'
p10
sS'MM_WX_NOTIFY_STATE'
p11
S'1'
p12
sS'MM_WX_SOUND_STATE'
p13
g12
sS'webwx_auth_ticket'
p14
S'CIsBEKXf8aUDGoABvp4s012ENzXwq8kKXwBMVEUlzxDP8VXw8W5zm+Gvum9DtVnF9M6E0PmvY4HLSDcUBP/KWf8JzKk3ZyRaGBsVqWuBsPOJZuxg0ylHcR3WILoX47Iva5DrfHUI147B3IFId+wVLQppAHqty10TcWPYFVkDE/28QYk6C6ypEK+xIsg='
p15
sS'last_wxuin'
p16
S'917385573'
p17
sS'webwxuvid'
p18
S'eb2bce8593273d6a7a4a9d8c489645bae2cbf4c09dbb521b6490d988c1e305435e9c54137a855af7cf9f16fde47637f2'
p19
sS'wxpluginkey'
p20
S'1534234349'
p21
sS'wxsid'
p22
S'Vpy28p9XRa0+QnoN'
p23
sS'mm_lang'
p24
S'zh_CN'
p25
ssS'version'
p26
S'1.2.32'
p27
sS'storage'
p28
(dp29
S'userName'
p30
V@1abd02a1dca231bc52e29a8240b36cffb62f38a7a345e361702467d82c05e924
p31
sS'lastInputUserName'
p32
NsS'memberList'
p33
(lp34
(dp35
S'UserName'
p36
g31
sS'City'
p37
S''
p38
sS'DisplayName'
p39
g38
sS'UniFriend'
p40
I0
sS'MemberList'
p41
(lp42
sS'PYQuanPin'
p43
V
p44
sS'RemarkPYInitial'
p45
g44
sS'Sex'
p46
I1
sS'AppAccountFlag'
p47
I0
sS'VerifyFlag'
p48
I0
sS'Province'
p49
g38
sS'KeyWord'
p50
g38
sS'RemarkName'
p51
g44
sS'PYInitial'
p52
g44
sS'ChatRoomId'
p53
I0
sS'HideInputBarFlag'
p54
I0
sVHeadImgFlag
p55
I1
sS'EncryChatRoomId'
p56
g38
sS'AttrStatus'
p57
I0
sVWebWxPluginSwitch
p58
I0
sS'SnsFlag'
p59
I1
sS'MemberCount'
p60
I0
sS'OwnerUin'
p61
I0
sS'Alias'
p62
g38
sS'Signature'
p63
Vppppppppp
p64
sS'ContactFlag'
p65
I0
sS'NickName'
p66
VTT\uff0c\u54c6\u6765\u54aa
p67
sS'RemarkPYQuanPin'
p68
g44
sS'HeadImgUrl'
p69
V/cgi-bin/mmwebwx-bin/webwxgeticon?seq=711258703&username=@1abd02a1dca231bc52e29a8240b36cffb62f38a7a345e361702467d82c05e924&skey=@crypt_9905c296_bfbf264b3563d2bf5eb21443c94a3494
p70
sS'Uin'
p71
I917385573
sS'StarFriend'
p72
I0
sS'Statues'
p73
I0
sa(dp74
VUserName
p75
V@b81a8c8f823d674147b2e6e4b407f272c8be97f7f712c24a75176177665c6e1a
p76
sVCity
p77
g44
sVDisplayName
p78
g44
sVUniFriend
p79
I0
sVMemberList
p80
(lp81
sVPYQuanPin
p82
Vtestmysky
p83
sVRemarkPYInitial
p84
g44
sVUin
p85
I0
sVAppAccountFlag
p86
I0
sVVerifyFlag
p87
I0
sVProvince
p88
g44
sVKeyWord
p89
g44
sVRemarkName
p90
g44
sVPYInitial
p91
VTESTMYSKY
p92
sVChatRoomId
p93
I0
sVIsOwner
p94
I0
sVHideInputBarFlag
p95
I0
sVEncryChatRoomId
p96
g44
sVAttrStatus
p97
I233977
sVSnsFlag
p98
I1
sVMemberCount
p99
I0
sVOwnerUin
p100
I0
sVAlias
p101
g44
sVSignature
p102
g44
sVContactFlag
p103
I1
sVNickName
p104
Vtestmysky
p105
sVRemarkPYQuanPin
p106
g44
sVHeadImgUrl
p107
V/cgi-bin/mmwebwx-bin/webwxgeticon?seq=636520058&username=@b81a8c8f823d674147b2e6e4b407f272c8be97f7f712c24a75176177665c6e1a&skey=@crypt_9905c296_bfbf264b3563d2bf5eb21443c94a3494
p108
sVSex
p109
I1
sVStarFriend
p110
I0
sVStatues
p111
I0
sa(dp112
VUserName
p113
V@abaf81a209018dc44b982565dd280969
p114
sVCity
p115
V\u671d\u9633
p116
sVDisplayName
p117
g44
sVUniFriend
p118
I0
sVMemberList
p119
(lp120
sVPYQuanPin
p121
Vhuipashudezhu
p122
sVRemarkPYInitial
p123
V666
p124
sVUin
p125
I0
sVAppAccountFlag
p126
I0
sVVerifyFlag
p127
I0
sVProvince
p128
V\u5317\u4eac
p129
sVKeyWord
p130
Vjaz
p131
sVRemarkName
p132
V666
p133
sVPYInitial
p134
VHPSDZ
p135
sVChatRoomId
p136
I0
sVIsOwner
p137
I0
sVHideInputBarFlag
p138
I0
sVEncryChatRoomId
p139
g44
sVAttrStatus
p140
I242175
sVSnsFlag
p141
I17
sVMemberCount
p142
I0
sVOwnerUin
p143
I0
sVAlias
p144
g44
sVSignature
p145
VDoing and Raising !
p146
sVContactFlag
p147
I3
sVNickName
p148
V\u4f1a\u722c\u6811\u5f97\u732a
p149
sVRemarkPYQuanPin
p150
V666
p151
sVHeadImgUrl
p152
V/cgi-bin/mmwebwx-bin/webwxgeticon?seq=664890227&username=@abaf81a209018dc44b982565dd280969&skey=@crypt_9905c296_bfbf264b3563d2bf5eb21443c94a3494
p153
sVSex
p154
I1
sVStarFriend
p155
I0
sVStatues
p156
I0
sa(dp157
VUserName
p158
V@d4b6d6b69eeeb0f7d1295c908b1b2ca0eef98e17e0d86700b666e282203afb53
p159
sVCity
p160
g44
sVDisplayName
p161
g44
sVUniFriend
p162
I0
sVMemberList
p163
(lp164
sVPYQuanPin
p165
VLittleCoderjiqiren
p166
sVRemarkPYInitial
p167
g44
sVUin
p168
I0
sVAppAccountFlag
p169
I0
sVVerifyFlag
p170
I0
sVProvince
p171
g44
sVKeyWord
p172
g44
sVRemarkName
p173
g44
sVPYInitial
p174
VLITTLECODERJQR
p175
sVChatRoomId
p176
I0
sVIsOwner
p177
I0
sVHideInputBarFlag
p178
I0
sVEncryChatRoomId
p179
g44
sVAttrStatus
p180
I234461
sVSnsFlag
p181
I1
sVMemberCount
p182
I0
sVOwnerUin
p183
I0
sVAlias
p184
g44
sVSignature
p185
V\u8be6\u7ec6\u7684\u529f\u80fd\u53ef\u4ee5\u89c1github\u4ed3\u5e93wiki\u9875\u3002
p186
sVContactFlag
p187
I3
sVNickName
p188
VLittleCoder\u673a\u5668\u4eba
p189
sVRemarkPYQuanPin
p190
g44
sVHeadImgUrl
p191
V/cgi-bin/mmwebwx-bin/webwxgeticon?seq=664890152&username=@d4b6d6b69eeeb0f7d1295c908b1b2ca0eef98e17e0d86700b666e282203afb53&skey=@crypt_9905c296_bfbf264b3563d2bf5eb21443c94a3494
p192
sVSex
p193
I0
sVStarFriend
p194
I0
sVStatues
p195
I0
sa(dp196
VUserName
p197
V@3c536f7312fcd671757f998e31a165849624d8c70b11ace5db6abded7dcf2f44
p198
sVCity
p199
g44
sVDisplayName
p200
g44
sVUniFriend
p201
I0
sVMemberList
p202
(lp203
sVPYQuanPin
p204
Vwenjie
p205
sVRemarkPYInitial
p206
g44
sVUin
p207
I0
sVAppAccountFlag
p208
I0
sVVerifyFlag
p209
I0
sVProvince
p210
VBerlin
p211
sVKeyWord
p212
g44
sVRemarkName
p213
g44
sVPYInitial
p214
VWJ
p215
sVChatRoomId
p216
I0
sVIsOwner
p217
I0
sVHideInputBarFlag
p218
I0
sVEncryChatRoomId
p219
g44
sVAttrStatus
p220
I16879649
sVSnsFlag
p221
I1
sVMemberCount
p222
I0
sVOwnerUin
p223
I0
sVAlias
p224
g44
sVSignature
p225
V\u4ea7\u4e1a\u4e92\u8054\u7f51\u7684\u8d4b\u80fd\u8005
p226
sVContactFlag
p227
I3
sVNickName
p228
V\u6587\u6770
p229
sVRemarkPYQuanPin
p230
g44
sVHeadImgUrl
p231
V/cgi-bin/mmwebwx-bin/webwxgeticon?seq=666630100&username=@3c536f7312fcd671757f998e31a165849624d8c70b11ace5db6abded7dcf2f44&skey=@crypt_9905c296_bfbf264b3563d2bf5eb21443c94a3494
p232
sVSex
p233
I1
sVStarFriend
p234
I0
sVStatues
p235
I0
sa(dp236
VUserName
p237
V@fcaaffbd1c3f8d10b8337a475f7001bf96c2b462d31aecd5ff1f0970c3ff0f26
p238
sVCity
p239
g44
sVDisplayName
p240
g44
sVUniFriend
p241
I0
sVMemberList
p242
(lp243
sVPYQuanPin
p244
Vfangyu
p245
sVRemarkPYInitial
p246
g44
sVUin
p247
I0
sVAppAccountFlag
p248
I0
sVVerifyFlag
p249
I0
sVProvince
p250
g44
sVKeyWord
p251
g44
sVRemarkName
p252
g44
sVPYInitial
p253
VFY
p254
sVChatRoomId
p255
I0
sVIsOwner
p256
I0
sVHideInputBarFlag
p257
I0
sVEncryChatRoomId
p258
g44
sVAttrStatus
p259
I102585
sVSnsFlag
p260
I1
sVMemberCount
p261
I0
sVOwnerUin
p262
I0
sVAlias
p263
g44
sVSignature
p264
g44
sVContactFlag
p265
I3
sVNickName
p266
V\u65b9\u8bed
p267
sVRemarkPYQuanPin
p268
g44
sVHeadImgUrl
p269
V/cgi-bin/mmwebwx-bin/webwxgeticon?seq=666630337&username=@fcaaffbd1c3f8d10b8337a475f7001bf96c2b462d31aecd5ff1f0970c3ff0f26&skey=@crypt_9905c296_bfbf264b3563d2bf5eb21443c94a3494
p270
sVSex
p271
I1
sVStarFriend
p272
I0
sVStatues
p273
I0
sa(dp274
VUserName
p275
V@5c5d05e83877d09e11b791765d1afc23
p276
sVCity
p277
g44
sVDisplayName
p278
g44
sVUniFriend
p279
I0
sVMemberList
p280
(lp281
sVPYQuanPin
p282
VGavin
p283
sVRemarkPYInitial
p284
g44
sVUin
p285
I0
sVAppAccountFlag
p286
I0
sVVerifyFlag
p287
I0
sVProvince
p288
g44
sVKeyWord
p289
Vzuo
p290
sVRemarkName
p291
g44
sVPYInitial
p292
VGAVIN
p293
sVChatRoomId
p294
I0
sVIsOwner
p295
I0
sVHideInputBarFlag
p296
I0
sVEncryChatRoomId
p297
g44
sVAttrStatus
p298
I129127
sVSnsFlag
p299
I177
sVMemberCount
p300
I0
sVOwnerUin
p301
I0
sVAlias
p302
g44
sVSignature
p303
V\u4eba\u751f\u9700\u8981\u7559\u767d\u2026\u2026
p304
sVContactFlag
p305
I3
sVNickName
p306
VGavin
p307
sVRemarkPYQuanPin
p308
g44
sVHeadImgUrl
p309
V/cgi-bin/mmwebwx-bin/webwxgeticon?seq=666631541&username=@5c5d05e83877d09e11b791765d1afc23&skey=@crypt_9905c296_bfbf264b3563d2bf5eb21443c94a3494
p310
sVSex
p311
I1
sVStarFriend
p312
I0
sVStatues
p313
I0
sa(dp314
VUserName
p315
V@ed2d637b691d519205a3bf2bbaff1c5f311f0eda73be6e2cefcbb74e437df267
p316
sVCity
p317
g44
sVDisplayName
p318
g44
sVUniFriend
p319
I0
sVMemberList
p320
(lp321
sVPYQuanPin
p322
Vziyi
p323
sVRemarkPYInitial
p324
g44
sVUin
p325
I0
sVAppAccountFlag
p326
I0
sVVerifyFlag
p327
I0
sVProvince
p328
VAddu Atoll
p329
sVKeyWord
p330
g44
sVRemarkName
p331
g44
sVPYInitial
p332
VZY
p333
sVChatRoomId
p334
I0
sVIsOwner
p335
I0
sVHideInputBarFlag
p336
I0
sVEncryChatRoomId
p337
g44
sVAttrStatus
p338
I102437
sVSnsFlag
p339
I1
sVMemberCount
p340
I0
sVOwnerUin
p341
I0
sVAlias
p342
g44
sVSignature
p343
V\u5f88\u591a\u4e8b\u60c5\u4e0d\u80fd\u56e0\u4e3a\u770b\u89c1\u4e86\u624d\u76f8\u4fe1\uff0c\u800c\u662f\u76f8\u4fe1\u4e86\u624d\u4f1a\u770b\u5f97\u89c1\uff01
p344
sVContactFlag
p345
I32771
sVNickName
p346
V\u6893\u6021
p347
sVRemarkPYQuanPin
p348
g44
sVHeadImgUrl
p349
V/cgi-bin/mmwebwx-bin/webwxgeticon?seq=666631547&username=@ed2d637b691d519205a3bf2bbaff1c5f311f0eda73be6e2cefcbb74e437df267&skey=@crypt_9905c296_bfbf264b3563d2bf5eb21443c94a3494
p350
sVSex
p351
I2
sVStarFriend
p352
I0
sVStatues
p353
I0
sa(dp354
VUserName
p355
V@99d1d85bf297996fc3f5f62627f4254b70b04edf74e19aa7adfbacda88779a03
p356
sVCity
p357
V\u5408\u80a5
p358
sVDisplayName
p359
g44
sVUniFriend
p360
I0
sVMemberList
p361
(lp362
sVPYQuanPin
p363
Vshouxidaoshicailinglaoshi
p364
sVRemarkPYInitial
p365
g44
sVUin
p366
I0
sVAppAccountFlag
p367
I0
sVVerifyFlag
p368
I0
sVProvince
p369
V\u5b89\u5fbd
p370
sVKeyWord
p371
g44
sVRemarkName
p372
g44
sVPYInitial
p373
VSXDSCLLS
p374
sVChatRoomId
p375
I0
sVIsOwner
p376
I0
sVHideInputBarFlag
p377
I0
sVEncryChatRoomId
p378
g44
sVAttrStatus
p379
I102437
sVSnsFlag
p380
I1
sVMemberCount
p381
I0
sVOwnerUin
p382
I0
sVAlias
p383
g44
sVSignature
p384
V\u8ba9\u4e00\u90e8\u5206\u7a0b\u5e8f\u5458\u5148\u62ff\u5230\u9ad8\u65b0\uff01\u6dfb\u52a0\u6211\u597d\u53cb\u65f6\uff0c\u672a\u5907\u6ce8\u6765\u6e90\uff0c\u4e0d\u901a\u8fc7\uff01
p385
sVContactFlag
p386
I3
sVNickName
p387
V\u9996\u5e2d\u5bfc\u5e08-\u8521\u73b2\u8001\u5e08
p388
sVRemarkPYQuanPin
p389
g44
sVHeadImgUrl
p390
V/cgi-bin/mmwebwx-bin/webwxgeticon?seq=666630618&username=@99d1d85bf297996fc3f5f62627f4254b70b04edf74e19aa7adfbacda88779a03&skey=@crypt_9905c296_bfbf264b3563d2bf5eb21443c94a3494
p391
sVSex
p392
I2
sVStarFriend
p393
I0
sVStatues
p394
I0
sa(dp395
VUserName
p396
V@fc0ad0b42749706de23c1b331c6e9f3800d392f75dd500742a317ea3f0e4aa9a
p397
sVCity
p398
V\u6c88\u9633
p399
sVDisplayName
p400
g44
sVUniFriend
p401
I0
sVMemberList
p402
(lp403
sVPYQuanPin
p404
Vjinrui
p405
sVRemarkPYInitial
p406
g44
sVUin
p407
I0
sVAppAccountFlag
p408
I0
sVVerifyFlag
p409
I0
sVProvince
p410
V\u8fbd\u5b81
p411
sVKeyWord
p412
g44
sVRemarkName
p413
g44
sVPYInitial
p414
VJR
p415
sVChatRoomId
p416
I0
sVIsOwner
p417
I0
sVHideInputBarFlag
p418
I0
sVEncryChatRoomId
p419
g44
sVAttrStatus
p420
I233509
sVSnsFlag
p421
I17
sVMemberCount
p422
I0
sVOwnerUin
p423
I0
sVAlias
p424
g44
sVSignature
p425
V\u4e00\u5339\u72fc\u4e00\u6279\u72fc
p426
sVContactFlag
p427
I3
sVNickName
p428
V\u91d1\u9510
p429
sVRemarkPYQuanPin
p430
g44
sVHeadImgUrl
p431
V/cgi-bin/mmwebwx-bin/webwxgeticon?seq=666631958&username=@fc0ad0b42749706de23c1b331c6e9f3800d392f75dd500742a317ea3f0e4aa9a&skey=@crypt_9905c296_bfbf264b3563d2bf5eb21443c94a3494
p432
sVSex
p433
I1
sVStarFriend
p434
I0
sVStatues
p435
I0
sasS'chatroomList'
p436
(lp437
sS'nickName'
p438
g67
sS'mpList'
p439
(lp440
(dp441
VUserName
p442
V@da8da5fe494abe7ca00eaa13b6d268fc
p443
sVCity
p444
g44
sVDisplayName
p445
g44
sVUniFriend
p446
I0
sVMemberList
p447
(lp448
sVPYQuanPin
p449
Vweixinzhifu
p450
sVRemarkPYInitial
p451
g44
sVUin
p452
I0
sVAppAccountFlag
p453
I0
sVVerifyFlag
p454
I24
sVProvince
p455
V\u5e7f\u4e1c
p456
sVKeyWord
p457
Vgh_
p458
sVRemarkName
p459
g44
sVPYInitial
p460
VWXZF
p461
sVChatRoomId
p462
I0
sVIsOwner
p463
I0
sVHideInputBarFlag
p464
I0
sVEncryChatRoomId
p465
g44
sVAttrStatus
p466
I0
sVSnsFlag
p467
I0
sVMemberCount
p468
I0
sVOwnerUin
p469
I0
sVAlias
p470
g44
sVSignature
p471
V\u5e2e\u52a9\u89e3\u51b3\u5fae\u4fe1\u652f\u4ed8\u4e2d\u9047\u5230\u7684\u56f0\u96be\uff0c\u6536\u96c6\u5173\u4e8e\u5fae\u4fe1\u652f\u4ed8\u7684\u5efa\u8bae\u53cd\u9988\u3002
p472
sVContactFlag
p473
I3
sVNickName
p474
V\u5fae\u4fe1\u652f\u4ed8
p475
sVRemarkPYQuanPin
p476
g44
sVHeadImgUrl
p477
V/cgi-bin/mmwebwx-bin/webwxgeticon?seq=639400190&username=@da8da5fe494abe7ca00eaa13b6d268fc&skey=@crypt_9905c296_bfbf264b3563d2bf5eb21443c94a3494
p478
sVSex
p479
I0
sVStarFriend
p480
I0
sVStatues
p481
I0
sa(dp482
VUserName
p483
V@904e35ec39651ce4a08716d2125c2631
p484
sVCity
p485
V\u6d77\u6dc0
p486
sVDisplayName
p487
g44
sVUniFriend
p488
I0
sVMemberList
p489
(lp490
sVPYQuanPin
p491
Vwodefapiao
p492
sVRemarkPYInitial
p493
g44
sVUin
p494
I0
sVAppAccountFlag
p495
I0
sVVerifyFlag
p496
I24
sVProvince
p497
V\u5317\u4eac
p498
sVKeyWord
p499
Vgh_
p500
sVRemarkName
p501
g44
sVPYInitial
p502
VWDFP
p503
sVChatRoomId
p504
I0
sVIsOwner
p505
I0
sVHideInputBarFlag
p506
I0
sVEncryChatRoomId
p507
g44
sVAttrStatus
p508
I0
sVSnsFlag
p509
I0
sVMemberCount
p510
I0
sVOwnerUin
p511
I0
sVAlias
p512
g44
sVSignature
p513
V\u6211\u7684\u53d1\u7968\u9488\u5bf9\u4e2a\u4eba\u6d88\u8d39\u8005\uff0c\u96c6\u53d1\u7968\u67e5\u9a8c\u3001\u6447\u5956\u3001\u5f52\u96c6\u548c\u53d1\u7968\u540d\u7247\u7b49\u6838\u5fc3\u529f\u80fd\u4e8e\u4e00\u4f53\uff0c\u81f4\u529b\u4e8e\u4e3a\u6d88\u8d39\u8005\u63d0\u4f9b\u5168\u65b9\u4f4d\u7684\u53d1\u7968\u670d\u52a1\u3002
p514
sVContactFlag
p515
I1
sVNickName
p516
V\u6211\u7684\u53d1\u7968
p517
sVRemarkPYQuanPin
p518
g44
sVHeadImgUrl
p519
V/cgi-bin/mmwebwx-bin/webwxgeticon?seq=666630136&username=@904e35ec39651ce4a08716d2125c2631&skey=@crypt_9905c296_bfbf264b3563d2bf5eb21443c94a3494
p520
sVSex
p521
I0
sVStarFriend
p522
I0
sVStatues
p523
I0
sa(dp524
VUserName
p525
V@bfc8093c48fc75a6986c34f4846bfb1a
p526
sVCity
p527
V\u53a6\u95e8
p528
sVDisplayName
p529
g44
sVUniFriend
p530
I0
sVMemberList
p531
(lp532
sVPYQuanPin
p533
Vcaidiaojiaocheng
p534
sVRemarkPYInitial
p535
g44
sVUin
p536
I0
sVAppAccountFlag
p537
I0
sVVerifyFlag
p538
I8
sVProvince
p539
V\u798f\u5efa
p540
sVKeyWord
p541
Vgh_
p542
sVRemarkName
p543
g44
sVPYInitial
p544
VCDJC
p545
sVChatRoomId
p546
I0
sVIsOwner
p547
I0
sVHideInputBarFlag
p548
I0
sVEncryChatRoomId
p549
g44
sVAttrStatus
p550
I0
sVSnsFlag
p551
I0
sVMemberCount
p552
I0
sVOwnerUin
p553
I0
sVAlias
p554
g44
sVSignature
p555
V\u5b66\u7684\u4e0d\u4ec5\u662f\u6280\u672f\uff0c\u66f4\u662f\u68a6\u60f3\uff01
p556
sVContactFlag
p557
I1
sVNickName
p558
V\u83dc\u9e1f\u6559\u7a0b
p559
sVRemarkPYQuanPin
p560
g44
sVHeadImgUrl
p561
V/cgi-bin/mmwebwx-bin/webwxgeticon?seq=664890698&username=@bfc8093c48fc75a6986c34f4846bfb1a&skey=@crypt_9905c296_bfbf264b3563d2bf5eb21443c94a3494
p562
sVSex
p563
I0
sVStarFriend
p564
I0
sVStatues
p565
I0
sa(dp566
VUserName
p567
V@5d7e8ad266067c3020885966f60fd4cd
p568
sVCity
p569
V\u6d77\u6dc0
p570
sVDisplayName
p571
g44
sVUniFriend
p572
I0
sVMemberList
p573
(lp574
sVPYQuanPin
p575
Vtulingjiqiren
p576
sVRemarkPYInitial
p577
g44
sVUin
p578
I0
sVAppAccountFlag
p579
I0
sVVerifyFlag
p580
I24
sVProvince
p581
V\u5317\u4eac
p582
sVKeyWord
p583
Vgh_
p584
sVRemarkName
p585
g44
sVPYInitial
p586
VTLJQR
p587
sVChatRoomId
p588
I0
sVIsOwner
p589
I0
sVHideInputBarFlag
p590
I0
sVEncryChatRoomId
p591
g44
sVAttrStatus
p592
I0
sVSnsFlag
p593
I0
sVMemberCount
p594
I0
sVOwnerUin
p595
I0
sVAlias
p596
g44
sVSignature
p597
V\u5b9e\u73b0\u673a\u5668\u4eba\u4e0e\u4eba\u7c7b\u7684\u81ea\u7531\u5bf9\u8bdd\uff0c\u4eba\u4eba\u62e5\u6709\u4e13\u5c5e\u673a\u5668\u4eba
p598
sVContactFlag
p599
I1
sVNickName
p600
V\u56fe\u7075\u673a\u5668\u4eba
p601
sVRemarkPYQuanPin
p602
g44
sVHeadImgUrl
p603
V/cgi-bin/mmwebwx-bin/webwxgeticon?seq=664890873&username=@5d7e8ad266067c3020885966f60fd4cd&skey=@crypt_9905c296_bfbf264b3563d2bf5eb21443c94a3494
p604
sVSex
p605
I0
sVStarFriend
p606
I0
sVStatues
p607
I0
sa(dp608
VUserName
p609
V@abe847ad15f227488c63785cce96c863
p610
sVCity
p611
V\u4e1c\u57ce
p612
sVDisplayName
p613
g44
sVUniFriend
p614
I0
sVMemberList
p615
(lp616
sVPYQuanPin
p617
Vbeijingyidong
p618
sVRemarkPYInitial
p619
g44
sVUin
p620
I0
sVAppAccountFlag
p621
I0
sVVerifyFlag
p622
I24
sVProvince
p623
V\u5317\u4eac
p624
sVKeyWord
p625
Vgh_
p626
sVRemarkName
p627
g44
sVPYInitial
p628
VBJYD
p629
sVChatRoomId
p630
I0
sVIsOwner
p631
I0
sVHideInputBarFlag
p632
I0
sVEncryChatRoomId
p633
g44
sVAttrStatus
p634
I0
sVSnsFlag
p635
I0
sVMemberCount
p636
I0
sVOwnerUin
p637
I0
sVAlias
p638
g44
sVSignature
p639
V\u5317\u4eac\u79fb\u52a8\u552f\u4e00\u5b98\u65b9\u6307\u5b9a\u516c\u4f17\u53f7\uff01 \u4fe1\u606f\u4e00\u952e\u67e5\u8be2\u3001\u4e1a\u52a1\u5728\u7ebf\u529e\u7406\u3001\u6700\u65b0\u4f18\u60e0\u8d44\u8baf\uff0c\u8fd8\u6709\u66f4\u591a\u514d\u8d39\u6d41\u91cf\u3001\u8bdd\u8d39\u3001\u79ef\u5206\u6d3b\u52a8\u7b49\u4f60\u6765\u53c2\u4e0e~~
p640
sVContactFlag
p641
I1
sVNickName
p642
V\u5317\u4eac\u79fb\u52a8
p643
sVRemarkPYQuanPin
p644
g44
sVHeadImgUrl
p645
V/cgi-bin/mmwebwx-bin/webwxgeticon?seq=666631211&username=@abe847ad15f227488c63785cce96c863&skey=@crypt_9905c296_bfbf264b3563d2bf5eb21443c94a3494
p646
sVSex
p647
I0
sVStarFriend
p648
I0
sVStatues
p649
I0
sa(dp650
VUserName
p651
V@489401be13f87ab2a3f3a7becae04ae8
p652
sVCity
p653
V\u957f\u5b81
p654
sVDisplayName
p655
g44
sVUniFriend
p656
I0
sVMemberList
p657
(lp658
sVPYQuanPin
p659
Vshanghailiantong
p660
sVRemarkPYInitial
p661
g44
sVUin
p662
I0
sVAppAccountFlag
p663
I0
sVVerifyFlag
p664
I24
sVProvince
p665
V\u4e0a\u6d77
p666
sVKeyWord
p667
Vgh_
p668
sVRemarkName
p669
g44
sVPYInitial
p670
VSHLT
p671
sVChatRoomId
p672
I0
sVIsOwner
p673
I0
sVHideInputBarFlag
p674
I0
sVEncryChatRoomId
p675
g44
sVAttrStatus
p676
I0
sVSnsFlag
p677
I0
sVMemberCount
p678
I0
sVOwnerUin
p679
I0
sVAlias
p680
g44
sVSignature
p681
V\u4e0a\u6d77\u8054\u901a\u552f\u4e00\u5b98\u65b9\u8d26\u53f7\u3002\u67e5\u8be2\u529e\u7406\u4e00\u952e\u641e\u5b9a\uff0c\u5ba2\u670d\u8f6f\u59b9\u8d34\u5fc3\u89e3\u5fe7\uff0c\u7cbe\u5f69\u6d3b\u52a8\u62a2\u5148\u77e5\u9053\uff01
p682
sVContactFlag
p683
I1
sVNickName
p684
V\u4e0a\u6d77\u8054\u901a
p685
sVRemarkPYQuanPin
p686
g44
sVHeadImgUrl
p687
V/cgi-bin/mmwebwx-bin/webwxgeticon?seq=666631217&username=@489401be13f87ab2a3f3a7becae04ae8&skey=@crypt_9905c296_bfbf264b3563d2bf5eb21443c94a3494
p688
sVSex
p689
I0
sVStarFriend
p690
I0
sVStatues
p691
I0
sa(dp692
VUserName
p693
V@64283302c9e86389a187c976c4ff99c8
p694
sVCity
p695
V\u676d\u5dde
p696
sVDisplayName
p697
g44
sVUniFriend
p698
I0
sVMemberList
p699
(lp700
sVPYQuanPin
p701
Vhangzhouliantong
p702
sVRemarkPYInitial
p703
g44
sVUin
p704
I0
sVAppAccountFlag
p705
I0
sVVerifyFlag
p706
I24
sVProvince
p707
V\u6d59\u6c5f
p708
sVKeyWord
p709
Vgh_
p710
sVRemarkName
p711
g44
sVPYInitial
p712
VHZLT
p713
sVChatRoomId
p714
I0
sVIsOwner
p715
I0
sVHideInputBarFlag
p716
I0
sVEncryChatRoomId
p717
g44
sVAttrStatus
p718
I0
sVSnsFlag
p719
I0
sVMemberCount
p720
I0
sVOwnerUin
p721
I0
sVAlias
p722
g44
sVSignature
p723
V\u53d1\u5e03\u6700\u65b0\u901a\u4fe1\u8d44\u8baf\u30014G\u5e94\u7528\u53ca\u77e5\u8bc6\uff0c\u9753\u53f7\u6f6e\u673a\u4fbf\u6377\u5230\u624b\uff0c\u8bed\u97f3\u6d41\u91cf\u7545\u4eab\u65e0\u5fe7\uff0c\u8fd8\u6709\u66f4\u591a\u8d44\u8baf\u63a8\u8350\u4e0e\u60a8\u5206\u4eab\uff01\u6211\u4eec\u81f4\u529b\u4e8e\u4e3a\u4f60\u63d0\u4f9b\u66f4\u8d34\u5fc3\u7684\u670d\u52a1\uff01
p724
sVContactFlag
p725
I1
sVNickName
p726
V\u676d\u5dde\u8054\u901a
p727
sVRemarkPYQuanPin
p728
g44
sVHeadImgUrl
p729
V/cgi-bin/mmwebwx-bin/webwxgeticon?seq=666631222&username=@64283302c9e86389a187c976c4ff99c8&skey=@crypt_9905c296_bfbf264b3563d2bf5eb21443c94a3494
p730
sVSex
p731
I0
sVStarFriend
p732
I0
sVStatues
p733
I0
sassS'loginInfo'
p734
(dp735
S'SyncKey'
p736
(dp737
VCount
p738
I4
sVList
p739
(lp740
(dp741
VVal
p742
I666631951
sVKey
p743
I1
sa(dp744
VVal
p745
I666632017
sVKey
p746
I2
sa(dp747
VVal
p748
I666631958
sVKey
p749
I3
sa(dp750
VVal
p751
I1534288322
sVKey
p752
I1000
sassS'syncUrl'
p753
S'https://webpush.wx.qq.com/cgi-bin/mmwebwx-bin'
p754
sS'skey'
p755
V@crypt_9905c296_bfbf264b3563d2bf5eb21443c94a3494
p756
sS'wxuin'
p757
V917385573
p758
sS'synckey'
p759
S'1_666631951|2_666632017|3_666631958|1000_1534288322'
p760
sS'url'
p761
Vhttps://wx.qq.com/cgi-bin/mmwebwx-bin
p762
sS'pass_ticket'
p763
VZPqnbaMvD%2B1BBdryxEAApT0n%2BnCiETj%2B%2BYxITWxHwopGUhiIEM%2FA%2Fei7tGrUBHb9
p764
sS'wxsid'
p765
VVpy28p9XRa0+QnoN
p766
sS'InviteStartCount'
p767
I40
sS'deviceid'
p768
S'e238936697821459'
p769
sS'fileUrl'
p770
S'https://file.wx.qq.com/cgi-bin/mmwebwx-bin'
p771
sS'BaseRequest'
p772
(dp773
g71
g758
sS'Skey'
p774
g756
sS'DeviceID'
p775
g764
sS'Sid'
p776
g766
ssS'User'
p777
g35
ss.